(dp1
S''
(dp2
S''
F0
sS'What'
p3
F0.0064516129032258064
sS'Thank'
p4
F0.0064516129032258064
sS'Forthwith'
p5
F0.0064516129032258064
sS'<@U03PYAR4J>,'
p6
F0.0064516129032258064
sS"We're"
p7
F0.0064516129032258064
sS'<@U03PYAR4J>:'
p8
F0.012903225806451613
sS'Might'
p9
F0.0064516129032258064
sS'Brunch,'
p10
F0.0064516129032258064
sS'24'
p11
F0.0064516129032258064
sS'ahahahahahaha'
p12
F0.0064516129032258064
sS"What's"
p13
F0.0064516129032258064
sS'gif>'
p14
F0.0064516129032258064
sS'(I'
p15
F0.0064516129032258064
sS'Hi'
p16
F0.0064516129032258064
sS'Despite'
p17
F0.0064516129032258064
sS'Not'
p18
F0.0064516129032258064
sS'<@U03PZUMNG>:'
p19
F0.0064516129032258064
sS'Oh'
p20
F0.01935483870967742
sS'fav'
p21
F0.0064516129032258064
sS'Also,'
p22
F0.012903225806451613
sS"I'm"
p23
F0.01935483870967742
sS'Enjoy'
p24
F0.0064516129032258064
sS'Trying'
p25
F0.0064516129032258064
sS'<@U03PY52P0>'
p26
F0.0064516129032258064
sS'Planning'
p27
F0.0064516129032258064
sS'(or'
p28
F0.0064516129032258064
sS'bah'
p29
F0.0064516129032258064
sS'For'
p30
F0.0064516129032258064
sS'Wow'
p31
F0.0064516129032258064
sS'testing'
p32
F0.0064516129032258064
sS'com/quizz'
p33
F0.0064516129032258064
sS'really'
p34
F0.0064516129032258064
sS'Ah,'
p35
F0.0064516129032258064
sS'(And'
p36
F0.0064516129032258064
sS"Daniel's"
p37
F0.0064516129032258064
sS'Hm'
p38
F0.0064516129032258064
sS'*distillery'
p39
F0.0064516129032258064
sS'Sorted'
p40
F0.0064516129032258064
sS'See,'
p41
F0.0064516129032258064
sS'TtW'
p42
F0.0064516129032258064
sS'Think'
p43
F0.0064516129032258064
sS'html>'
p44
F0.0064516129032258064
sS':tequila:'
p45
F0.0064516129032258064
sS'<@U03PX4FGH>:'
p46
F0.0064516129032258064
sS'30'
p47
F0.0064516129032258064
sS'One,'
p48
F0.0064516129032258064
sS'Nah,'
p49
F0.0064516129032258064
sS'Yup,'
p50
F0.0064516129032258064
sS'Yes'
p51
F0.0064516129032258064
sS'or'
p52
F0.0064516129032258064
sS'Best'
p53
F0.0064516129032258064
sS'Yes,'
p54
F0.012903225806451613
sS'No'
p55
F0.0064516129032258064
sS'com/5c6aa19a0eff3998b9c2eda7f9aff771/tumblr_n3f553FaTV1szpxfuo1_500'
p56
F0.0064516129032258064
sS'There'
p57
F0.012903225806451613
sS':goth:'
p58
F0.012903225806451613
sS'Also'
p59
F0.0064516129032258064
sS'Going'
p60
F0.0064516129032258064
sS"They'll"
p61
F0.0064516129032258064
sS'Folks'
p62
F0.0064516129032258064
sS'Sorry'
p63
F0.0064516129032258064
sS"Haven't"
p64
F0.0064516129032258064
sS'<@U03PXT1KP>:'
p65
F0.0064516129032258064
sS'headachy'
p66
F0.0064516129032258064
sS'would'
p67
F0.0064516129032258064
sS"I've"
p68
F0.0064516129032258064
sS'But'
p69
F0.0064516129032258064
sS'<@U03PYAR4J>'
p70
F0.0064516129032258064
sS'media'
p71
F0.0064516129032258064
sS'Well'
p72
F0.0064516129032258064
sS'ah,'
p73
F0.0064516129032258064
sS'it'
p74
F0.0064516129032258064
sS'(Can'
p75
F0.0064516129032258064
sS'ha'
p76
F0.0064516129032258064
sS'dang,'
p77
F0.0064516129032258064
sS'And'
p78
F0.0064516129032258064
sS'tumblr'
p79
F0.0064516129032258064
sS'Botness'
p80
F0.0064516129032258064
sS'Feel'
p81
F0.0064516129032258064
sS':simple_smile:'
p82
F0.0064516129032258064
sS'Actually,'
p83
F0.0064516129032258064
sS':doner:'
p84
F0.0064516129032258064
sS'can'
p85
F0.0064516129032258064
sS'Our'
p86
F0.0064516129032258064
sS'I\\m'
p87
F0.0064516129032258064
sS'and'
p88
F0.01935483870967742
sS'is'
p89
F0.0064516129032258064
sS'locations'
p90
F0.0064516129032258064
sS'well,'
p91
F0.0064516129032258064
sS'brazenhead'
p92
F0.0064516129032258064
sS'<@U03QPG6U1>:'
p93
F0.01935483870967742
sS'Lovely'
p94
F0.0064516129032258064
sS'Hope'
p95
F0.0064516129032258064
sS'BOTH'
p96
F0.012903225806451613
sS'<http://38'
p97
F0.0064516129032258064
sS'date=07082004>'
p98
F0.0064516129032258064
sS'"A'
p99
F0.0064516129032258064
sS')'
F0.025806451612903226
sS'Sorry\xe2\x80\x94I'
p100
F0.012903225806451613
sS'<@U04H9G2FG>:'
p101
F0.012903225806451613
sS"(I'm"
p102
F0.0064516129032258064
sS'They'
p103
F0.0064516129032258064
sS'TEAM'
p104
F0.0064516129032258064
sS'test'
p105
F0.0064516129032258064
sS'Brunch'
p106
F0.0064516129032258064
sS'roll'
p107
F0.0064516129032258064
sS'Exactement'
p108
F0.0064516129032258064
sS'com/index'
p109
F0.0064516129032258064
sS'I'
F0.045161290322580643
sS'THERE'
p110
F0.0064516129032258064
sS'Will'
p111
F0.012903225806451613
sS'(was'
p112
F0.0064516129032258064
sS'Nat,'
p113
F0.0064516129032258064
sS'/giphy'
p114
F0.032258064516129031
sS'php'
p115
F0.0064516129032258064
sS'(Hi'
p116
F0.0064516129032258064
sS'achewood'
p117
F0.0064516129032258064
sS"Didn't"
p118
F0.0064516129032258064
sS'It'
p119
F0.0064516129032258064
sS'petescandystore'
p120
F0.0064516129032258064
sS'At'
p121
F0.0064516129032258064
sS'there\xe2\x80\x99s'
p122
F0.012903225806451613
sS'the'
p123
F0.0064516129032258064
sS'Cloud'
p124
F0.0064516129032258064
ssS'all'
p125
(dp126
S'went'
p127
F0.5
sS'day'
p128
F0.5
ssS'NoJ'
p129
(dp130
S'was'
p131
F1
ssS'Bugger,'
p132
(dp133
S'you'
p134
F1
ssg5
(dp135
S'of'
p136
F1
ssS'tomorrow,'
p137
(dp138
S'several'
p139
F1
ssS"friend's"
p140
(dp141
S'birthday'
p142
F1
ssS'go'
p143
(dp144
S'and'
p145
F1
ssS'NYC'
p146
(dp147
S'planning'
p148
F0.40000000000000002
sS'weather'
p149
F0.20000000000000001
sS'karaoke'
p150
F0.20000000000000001
sS'time'
p151
F0.20000000000000001
ssS'21st'
p152
(dp153
S'at'
p154
F1
ssS'good'
p155
(dp156
S'to'
p157
F0.5
sS'plot,'
p158
F0.5
ssS'to'
p159
(dp160
S'DM'
p161
F0.035714285714285712
sS'it'
p162
F0.035714285714285712
sS'tonight'
p163
F0.035714285714285712
sS'see'
p164
F0.035714285714285712
sS'have'
p165
F0.035714285714285712
sS'fit'
p166
F0.035714285714285712
sS'make'
p167
F0.035714285714285712
sS'get'
p168
F0.035714285714285712
sS'add'
p169
F0.035714285714285712
sS'be'
p170
F0.035714285714285712
sS'reiterate'
p171
F0.035714285714285712
sS'pull'
p172
F0.035714285714285712
sS'apologise'
p173
F0.035714285714285712
sS'drag'
p174
F0.035714285714285712
sS'come'
p175
F0.035714285714285712
sS'change'
p176
F0.035714285714285712
sS'a'
F0.071428571428571425
sS'on'
p177
F0.035714285714285712
sS'us,'
p178
F0.035714285714285712
sS'us'
p179
F0.035714285714285712
sS'meet'
p180
F0.035714285714285712
sS'the'
p181
F0.071428571428571425
sS'8:30'
p182
F0.035714285714285712
sS'my'
p183
F0.035714285714285712
sS'SF'
p184
F0.071428571428571425
ssg16
(dp185
S'all,'
p186
F1
ssS'certain'
p187
(dp188
S'channels'
p189
F1
ssg18
(dp190
S'sure'
p191
F1
ssS'DJ,'
p192
(dp193
S'so'
p194
F1
ssS'town'
p195
(dp196
S''
F0.33333333333333331
sS'on'
p197
F0.33333333333333331
sS'next'
p198
F0.33333333333333331
ssS'Kissane'
p199
(dp200
S''
F1
ssS'very'
p201
(dp202
S'fuzzy'
p203
F0.25
sg155
F0.25
sS'loud'
p204
F0.25
sS'much'
p205
F0.25
ssS'23rd'
p206
(dp207
S''
F1
ssg21
(dp208
S'goth'
p209
F1
ssg23
(dp210
S'planning'
p211
F0.25
sS'assuming'
p212
F0.25
sS'currently'
p213
F0.25
sS'in'
p214
F0.25
ssg14
(dp215
S''
F1
ssg24
(dp216
S'the'
p217
F1
ssg25
(dp218
S'to'
p219
F1
ssS'--'
p220
(dp221
S'data'
p222
F1
ssS'turns'
p223
(dp224
S'out'
p225
F1
ssS'list'
p226
(dp227
S''
F0.5
sS'next'
p228
F0.5
ssS'quiz)'
p229
(dp230
S'tomorrow'
p231
F1
ssS'oil,'
p232
(dp233
S"it's"
p234
F1
ssS'team'
p235
(dp236
S'here'
p237
F1
ssS'ups'
p238
(dp239
S'etc'
p240
F1
ssS'9pm'
p241
(dp242
S'and'
p243
F1
ssS'us,'
p244
(dp245
S"I'll"
p246
F0.5
sS'drinking'
p247
F0.5
ssS'neighborhood'
p248
(dp249
S'(and'
p250
F1
ssS'rents'
p251
(dp252
S'tripled'
p253
F1
ssS'hells,'
p254
(dp255
S'<@U03PZUMNG>,'
p256
F1
ssS'me,'
p257
(dp258
S'Ingrid,'
p259
F1
ssS'past'
p260
(dp261
S'the'
p262
F1
ssS'likely'
p263
(dp264
S'Sunday,'
p265
F1
ssS'street'
p266
(dp267
S'that'
p268
F1
ssS'functioning'
p269
(dp270
S''
F1
ssS'folk'
p271
(dp272
S'were'
p273
F0.5
sS'should'
p274
F0.5
ssS'drinks'
p275
(dp276
S'tomorrow'
p277
F1
ssS'that,'
p278
(dp279
S'and'
p280
F1
ssS'will'
p281
(dp282
S'be'
p283
F0.5
sS'you'
p284
F0.25
sS'now'
p285
F0.25
ssS'what'
p286
(dp287
S'the'
p288
F0.33333333333333331
sS'is'
p289
F0.33333333333333331
sS'are'
p290
F0.33333333333333331
ssS'TTW'
p291
(dp292
S'so'
p293
F1
ssS'while'
p294
(dp295
S"everyone's"
p296
F0.5
sS'imbibing'
p297
F0.5
ssS'Pub'
p298
(dp299
S'(Bleecker'
p300
F1
ssg40
(dp301
S''
F1
ssg41
(dp302
S'they'
p303
F1
ssS'told'
p304
(dp305
S'you'
p306
F1
ssS'led'
p307
(dp308
g159
F1
ssS'upsetting'
p309
(dp310
S'that'
p311
F1
ssg42
(dp312
S'folks'
p313
F1
ssS'here'
p314
(dp315
S'a'
F0.33333333333333331
sS'on'
p316
F0.33333333333333331
sg260
F0.33333333333333331
ssS'hours'
p317
(dp318
S'people'
p319
F1
ssS'aMAZing'
p320
(dp321
S'cocktail'
p322
F1
ssS'let'
p323
(dp324
S'you'
p325
F0.66666666666666663
sS'someone'
p326
F0.33333333333333331
ssS'free'
p327
(dp328
S'to'
p329
F1
ssS'others'
p330
(dp331
S'in'
p332
F1
ssg79
(dp333
S''
F1
ssg176
(dp334
S'it'
p335
F1
ssS'sending'
p336
(dp337
S'me'
p338
F1
ssS'great'
p339
(dp340
S'for'
p341
F1
ssg46
(dp342
S'Did'
p343
F1
ssS'thirty'
p344
(dp345
S''
F1
ssS'DC'
p346
(dp347
S'Thursday'
p348
F1
ssS'Tuesday'
p349
(dp350
S'and'
p351
F1
ssg47
(dp352
S''
F1
ssg48
(dp353
S'where'
p354
F1
ssS'leaving'
p355
(dp356
S'town'
p357
F1
ssg50
(dp358
S'flight'
p359
F1
ssS'social'
p360
(dp361
S'media'
p362
F0.5
sS'from'
p363
F0.5
ssS'weird'
p364
(dp365
S'latency'
p366
F1
ssS'NOW'
p367
(dp368
S''
F0.5
sS'it'
p369
F0.5
ssS'options'
p370
(dp371
S''
F1
ssS'plotted'
p372
(dp373
S'ages'
p374
F1
ssS'envious'
p375
(dp376
S'of'
p377
F1
ssS'inducing'
p378
(dp379
S'weaponised'
p380
F1
ssg374
(dp381
S'ago'
p382
F1
ssg59
(dp383
S'not'
p384
F1
ssS'you\xe2\x80\x99re'
p385
(dp386
S'not'
p387
F1
ssg61
(dp388
S'pretty'
p389
F1
ssS'cloud'
p390
(dp391
S''
F1
ssS'emoji'
p392
(dp393
S''
F1
ssS'from'
p394
(dp395
S'5:30'
p396
F0.16666666666666666
sS'the'
p397
F0.5
sS'NYU,'
p398
F0.16666666666666666
sg346
F0.16666666666666666
ssS'would'
p399
(dp400
S'be'
p401
F0.80000000000000004
sS'like'
p402
F0.20000000000000001
ssS'visit'
p403
(dp404
S''
F1
ssS'two'
p405
(dp406
S'can'
p407
F1
ssS'by'
p408
(dp409
S'a'
F0.5
sS'250'
p410
F0.5
ssS'bluth'
p411
(dp412
S''
F1
ssS'call'
p413
(dp414
S'incorrectly'
p415
F1
ssS'recommend'
p416
(dp417
S'in'
p418
F1
ssS'type'
p419
(dp420
S''
F1
ssS'until'
p421
(dp422
S'the'
p423
F1
ssS'today'
p424
(dp425
S''
F1
ssS'more'
p426
(dp427
g317
F0.5
sg263
F0.5
ssS'sort'
p428
(dp429
S'of'
p430
F1
ssS'knows'
p431
(dp432
S'the'
p433
F1
ssS'non-karaoke'
p434
(dp435
S'person,'
p436
F1
ssS'inclined'
p437
(dp438
g137
F1
ssS'Wednesday'
p439
(dp440
S'after'
p441
F0.5
sS'evening:'
p442
F0.5
ssS'St'
p443
(dp444
S'btwn'
p445
F0.5
sS'Marks'
p446
F0.5
ssS'warm'
p447
(dp448
S'today'
p449
F1
ssS'V'
(dp450
S'bar,'
p451
F1
ssg75
(dp452
S'we'
p453
F1
ssg150
(dp454
S'on'
p455
F0.5
sS'happening'
p456
F0.5
ssS'me'
p457
(dp458
S''
F0.33333333333333331
sS'making'
p459
F0.33333333333333331
sS'that'
p460
F0.33333333333333331
ssS':d20:'
p461
(dp462
S''
F1
ssS'join'
p463
(dp464
g244
F1
ssS'ace'
p465
(dp466
S''
F1
ssg80
(dp467
S''
F1
ssS'this'
p468
(dp469
S'evening'
p470
F0.125
sS'one'
p471
F0.125
sS'year,'
p472
F0.125
sS'Saturday,'
p473
F0.125
sS'weekend'
p474
F0.25
sS'channel'
p475
F0.25
ssS'#sd'
p476
(dp477
S'equivalent'
p478
F1
ssS'work'
p479
(dp480
S'done'
p481
F1
ssS'sucks'
p482
(dp483
S''
F1
ssg83
(dp484
S"there's"
p485
F1
ssS'big)'
p486
(dp487
S'<http://www'
p488
F1
ssS'can'
p489
(dp490
S'be'
p491
F0.090909090909090912
sS'do'
p492
F0.090909090909090912
sS'make'
p493
F0.090909090909090912
sS'accommodate'
p494
F0.27272727272727271
sS'see'
p495
F0.090909090909090912
sS'slackbots'
p496
F0.090909090909090912
sg143
F0.090909090909090912
sS'you'
p497
F0.090909090909090912
sS'come'
p498
F0.090909090909090912
ssS'making'
p499
(dp500
S'an'
p501
F0.5
sS'that'
p502
F0.5
ssS'closing'
p503
(dp504
S'soon,'
p505
F1
ssg87
(dp506
S'missing'
p507
F1
ssg183
(dp508
S'flight'
p509
F0.16666666666666666
sS'notifications'
p510
F0.16666666666666666
sg226
F0.16666666666666666
sS'talk'
p511
F0.16666666666666666
sS'panel'
p512
F0.33333333333333331
ssg184
(dp513
S'on'
p514
F1
ssS'pints'
p515
(dp516
S'(and'
p517
F1
ssS"didn't"
p518
(dp519
S'know'
p520
F1
ssS'Thompson'
p521
(dp522
S'and'
p523
F0.66666666666666663
sS'between'
p524
F0.33333333333333331
ssS'transpires'
p525
(dp526
S'out'
p527
F1
ssg94
(dp528
S'to'
p529
F1
ssg86
(dp530
S'own'
p531
F1
ssS'around,'
p532
(dp533
S'yes'
p534
F1
ssS'post-TTW,'
p535
(dp536
S'yes'
p537
F1
ssS'sit'
p538
(dp539
S'there'
p540
F1
ssg100
(dp541
g372
F1
ssS'Laguardia'
p542
(dp543
S'Pl)'
p544
F1
ssS'amazing'
p545
(dp546
S'sunshine,'
p547
F1
ssg97
(dp548
S''
F1
ssS'A'
(dp549
S'and'
p550
F0.5
sS'GOTH'
p551
F0.5
ssS'both)'
p552
(dp553
S''
F1
ssS'w'
(dp554
S'village'
p555
F1
ssg322
(dp556
S'bar'
p557
F1
ssS'after'
p558
(dp559
S'a'
F0.5
sS'trivia'
p560
F0.5
ssS'variant'
p561
(dp562
S'of'
p563
F1
ssS'lab'
p564
(dp565
S'folk'
p566
F1
ssS'latte'
p567
(dp568
S''
F1
ssg111
(dp569
S'be'
p570
F0.5
sS'let'
p571
F0.5
ssS'wrong'
p572
(dp573
g220
F1
ssS'birthday'
p574
(dp575
S'party'
p576
F0.5
sS'brunch'
p577
F0.5
ssS'opening'
p578
(dp579
S'this'
p580
F1
ssS'coming'
p581
(dp582
S'back'
p583
F1
ssS'data'
p584
(dp585
S'as'
p586
F0.5
sS"isn't"
p587
F0.5
ssS'a'
(dp588
S'house'
p589
F0.037037037037037035
sS'hard'
p590
F0.037037037037037035
sg140
F0.037037037037037035
sS'Deb'
p591
F0.037037037037037035
sS'dozen'
p592
F0.037037037037037035
sS'little'
p593
F0.037037037037037035
sS'Bluth)'
p594
F0.037037037037037035
sS'long'
p595
F0.037037037037037035
sS'day,'
p596
F0.037037037037037035
sg434
F0.07407407407407407
sg201
F0.07407407407407407
sS'big'
p597
F0.037037037037037035
sg561
F0.037037037037037035
sg567
F0.037037037037037035
sg574
F0.037037037037037035
sS'bit'
p598
F0.07407407407407407
sS'superset'
p599
F0.037037037037037035
sS'vague'
p600
F0.037037037037037035
sS'sister'
p601
F0.037037037037037035
sg229
F0.037037037037037035
sS'specific'
p602
F0.037037037037037035
sg235
F0.07407407407407407
sS'voice'
p603
F0.037037037037037035
ssS'orchard'
p604
(dp605
S'st'
p606
F1
ssS'maybe'
p607
(dp608
S'a'
F1
ssS'mezzanine'
p609
(dp610
S''
F1
ssS'Bleecker;'
p611
(dp612
S"it's"
p613
F1
ssg606
(dp614
S''
F1
ssg194
(dp615
S'we'
p616
F0.25
sS'anything'
p617
F0.125
sS'would'
p618
F0.125
sS'I'
F0.125
sS'while'
p619
F0.125
sS'not'
p620
F0.125
sS'<@U03PX4FGH>'
p621
F0.125
ssg493
(dp622
S'this'
p623
F0.5
sS'it'
p624
F0.5
ssg511
(dp625
S''
F1
ssS"that's"
p626
(dp627
S'about'
p628
F1
ssg3
(dp629
S'exactly'
p630
F1
ssS"don't"
p631
(dp632
S'clog'
p633
F0.5
sS'think'
p634
F0.5
ssS'taxonomy'
p635
(dp636
S'pinned'
p637
F1
ssS'top'
p638
(dp639
S'texture'
p640
F1
ssS'22nd,'
p641
(dp642
S'right'
p643
F1
ssg54
(dp644
S'we'
p645
F0.5
sS'but'
p646
F0.5
ssS'through'
p647
(dp648
S'a'
F0.5
sS'security,'
p649
F0.5
ssS'early,'
p650
(dp651
S'I'
F1
ssS'still'
p652
(dp653
g532
F0.5
sS'madly'
p654
F0.5
ssS'its'
p655
(dp656
S'own'
p657
F1
ssg10
(dp658
S'<@U03PY52P0>'
p659
F1
ssg11
(dp660
g426
F1
ssg166
(dp661
S'in'
p662
F1
ssS'somewhere'
p663
(dp664
S''
F0.5
sS'in'
p665
F0.5
ssg13
(dp666
S'the'
p667
F1
ssS'late'
p668
(dp669
S'at'
p670
F1
ssS'window'
p671
(dp672
S'into'
p673
F1
ssS'main'
p674
(dp675
S'channels'
p676
F1
ssS'might'
p677
(dp678
S'have'
p679
F1
ssS'thereafter'
p680
(dp681
S''
F1
ssS'coffee'
p682
(dp683
S'on'
p684
F0.66666666666666663
sS'places'
p685
F0.33333333333333331
ssS'evening'
p686
(dp687
S''
F0.66666666666666663
sS'of'
p688
F0.22222222222222221
sS'late-ish'
p689
F0.1111111111111111
ssS'Bar'
p690
(dp691
S'(E'
p692
F1
ssS'@joanne'
p693
(dp694
S''
F1
ssS'bots,'
p695
(dp696
S'a'
F1
ssg247
(dp697
S'from'
p698
F1
ssg22
(dp699
S'as'
p700
F0.5
sS'we'
p701
F0.5
ssg620
(dp702
g378
F0.20000000000000001
sS'sure'
p703
F0.20000000000000001
sS'listening'
p704
F0.20000000000000001
sS':disappointed:'
p705
F0.20000000000000001
sg581
F0.20000000000000001
ssS'now'
p706
(dp707
S''
F0.5
sS'reply'
p708
F0.5
ssS'day'
p709
(dp710
S'of'
p711
F0.33333333333333331
sS'with'
p712
F0.33333333333333331
sS'in'
p713
F0.33333333333333331
ssS'down'
p714
(dp715
S'the'
p716
F0.5
sS'in'
p717
F0.5
ssS'gets'
p718
(dp719
S'in'
p720
F1
ssS'name'
p721
(dp722
S'dropping'
p723
F1
ssg26
(dp724
S''
F0.5
sS'where'
p725
F0.5
ssS'always'
p726
(dp727
S'almost'
p728
F1
ssg186
(dp729
S'just'
p730
F1
ssg505
(dp731
S'too,'
p732
F1
ssg37
(dp733
S'on'
p734
F1
ssS'beforehand'
p735
(dp736
S''
F1
ssS'found'
p737
(dp738
S'an'
p739
F1
ssg127
(dp740
S'swimmingly'
p741
F0.5
sS'to'
p742
F0.5
ssS'side'
p743
(dp744
S'or'
p745
F0.5
sS'texture'
p746
F0.5
ssS"isn't"
p747
(dp748
S'the'
p749
F0.66666666666666663
sS'going'
p750
F0.33333333333333331
ssS'everyone'
p751
(dp752
S'has'
p753
F0.5
sg721
F0.5
ssS'delicious'
p754
(dp755
S'cocktails,'
p756
F1
ssS'doing'
p757
(dp758
S'the'
p759
F0.5
sS'an'
p760
F0.5
ssg589
(dp761
S'party'
p762
F1
ssg31
(dp763
S''
F1
ssg590
(dp764
S'trick'
p765
F1
ssS'Varick'
p766
(dp767
S'Street),'
p768
F1
ssS'(West'
p769
(dp770
S'Houston,'
p771
F1
ssS'vote'
p772
(dp773
S'for'
p774
F1
ssS'manifesto'
p775
(dp776
S'in'
p777
F1
ssS'our'
p778
(dp779
S'dear'
p780
F0.5
sg584
F0.5
ssS'out'
p781
(dp782
S'on'
p783
F0.16666666666666666
sS'into'
p784
F0.16666666666666666
sS'"bot"'
p785
F0.16666666666666666
sS'to'
p786
F0.16666666666666666
sS'too'
p787
F0.16666666666666666
sS'the'
p788
F0.16666666666666666
ssS'yes,'
p789
(dp790
S'I'
F1
ssS'missed'
p791
(dp792
g781
F1
ssS'3rd'
p793
(dp794
S'and'
p795
F0.5
sS'Avenues),'
p796
F0.5
ssS'open'
p797
(dp798
g360
F1
ssg109
(dp799
S''
F1
ssS'projected'
p800
(dp801
S'time'
p802
F1
ssg36
(dp803
g789
F1
ssS'looking'
p804
(dp805
S'at'
p806
F1
ssg596
(dp807
S'which'
p808
F1
ssS'got'
p809
(dp810
S'it'
p811
F0.5
sS'an'
p812
F0.5
ssg796
(dp813
S'Houston'
p814
F1
ssS'EMOJI'
p815
(dp816
g367
F1
ssS'plans/meet'
p817
(dp818
g238
F1
ssg209
(dp819
S'image'
p820
F1
ssS'turning'
p821
(dp822
S'up'
p823
F1
ssS'personal'
p824
(dp825
S'bot-foglets,'
p826
F1
ssS'pub'
p827
(dp828
S'quiz'
p829
F1
ssg66
(dp830
S'at'
p831
F1
ssS'early'
p832
(dp833
S'on'
p834
F1
ssS'which'
p835
(dp836
S'conference'
p837
F0.5
sg482
F0.5
ssS'earliest'
p838
(dp839
S''
F1
ssS'owners'
p840
(dp841
S'who'
p842
F1
ssS'Additivist'
p843
(dp844
S'event,'
p845
F1
ssS'days'
p846
(dp847
S''
F1
ssS'thing'
p848
(dp849
g832
F0.33333333333333331
sS'on'
p850
F0.33333333333333331
sS'at'
p851
F0.33333333333333331
ssS'place'
p852
(dp853
S''
F0.5
sS'to'
p854
F0.5
ssS"today's"
p855
(dp856
S'rain'
p857
F1
ssS'can\xe2\x80\x99t'
p858
(dp859
g419
F1
ssg204
(dp860
S'with'
p861
F1
ssS'think'
p862
(dp863
S'I'
F0.25
sS'<@U04H9G2FG>'
p864
F0.25
sS'my'
p865
F0.5
ssS'first'
p866
(dp867
S'message'
p868
F1
ssS'flying'
p869
(dp870
S'to'
p871
F1
ssg56
(dp872
S''
F1
ssg732
(dp873
S'so'
p874
F1
ssg57
(dp875
S'are'
p876
F1
ssg398
(dp877
S'for'
p878
F1
ssg471
(dp879
S''
F0.5
sS'bot\xe2\x80\xa6that'
p880
F0.5
ssg676
(dp881
S''
F0.5
sS'#organisationface'
p882
F0.5
ssg60
(dp883
S'to'
p884
F1
ssg481
(dp885
g424
F1
ssS'another'
p886
(dp887
S'booked'
p888
F0.5
sS'long'
p889
F0.5
ssg62
(dp890
S''
F1
ssg864
(dp891
S'will'
p892
F0.5
sS''
F0.5
ssg868
(dp893
S'was'
p894
F1
ssS'quality'
p895
(dp896
S'of'
p897
F1
ssS'tomorrow'
p898
(dp899
S''
F0.33333333333333331
sg686
F0.33333333333333331
sS'night'
p900
F0.33333333333333331
ssS"you're"
p901
(dp902
g804
F0.33333333333333331
sg269
F0.33333333333333331
sS'here'
p903
F0.33333333333333331
ssg593
(dp904
g650
F1
ssg115
(dp905
S''
F1
ssS'activities'
p906
(dp907
g680
F1
ssS'(possibly'
p908
(dp909
S'too'
p910
F1
ssS'5th'
p911
(dp912
g443
F1
ssg303
(dp913
S'got'
p914
F1
ssS'anyone'
p915
(dp916
S'would'
p917
F1
ssS'their'
p918
(dp919
g251
F1
ssS'too'
p920
(dp921
S''
F0.20000000000000001
sS'many'
p922
F0.20000000000000001
sg486
F0.20000000000000001
sS'late,'
p923
F0.20000000000000001
sg668
F0.20000000000000001
ssS'<@U03PYAR4J>'
p924
(dp925
S"You're"
p926
F0.5
sS'merry'
p927
F0.5
ssS'<@U03PZUMNG>'
p928
(dp929
S''
F1
ssS'drool'
p930
(dp931
S'at'
p932
F1
ssg473
(dp933
S'if'
p934
F1
ssS'Dove'
p935
(dp936
S'Parlour'
p937
F1
ssS'final'
p938
(dp939
g709
F1
ssS'speaking'
p940
(dp941
S'at'
p942
F1
ssS'(St'
p943
(dp944
S'Marks'
p945
F1
ssg268
(dp946
S'distills'
p947
F0.058823529411764705
sS'evening'
p948
F0.058823529411764705
sg248
F0.058823529411764705
sS'^^'
p949
F0.058823529411764705
sg843
F0.058823529411764705
sS'is'
p950
F0.058823529411764705
sS'there'
p951
F0.11764705882352941
sS'Thurs'
p952
F0.11764705882352941
sg775
F0.058823529411764705
sS'can'
p953
F0.11764705882352941
sS'Deb'
p954
F0.058823529411764705
sS'the'
p955
F0.11764705882352941
sS'official'
p956
F0.058823529411764705
ssg630
(dp957
S'happens'
p958
F1
ssg173
(dp959
S''
F1
ssg845
(dp960
S'seems'
p961
F1
ssS'because'
p962
(dp963
S'I'
F1
ssg496
(dp964
S'delete'
p965
F1
ssg203
(dp966
g938
F1
ssS'crawl'
p967
(dp968
S'through'
p969
F1
ssS'than'
p970
(dp971
S'karaoke,'
p972
F1
ssS'11'
p973
(dp974
S''
F1
ssS'gotten'
p975
(dp976
S'much'
p977
F1
ssS'were'
p978
(dp979
S'interested'
p980
F0.5
sg754
F0.5
ssg601
(dp981
S'place'
p982
F1
ssg182
(dp983
S'at'
p984
F1
ssS'wandering'
p985
(dp986
S'in'
p987
F1
ssS'interactive'
p988
(dp989
S'theater'
p990
F1
ssS'and'
p991
(dp992
S'what'
p993
F0.043478260869565216
sS'the'
p994
F0.043478260869565216
sS'B),'
p995
F0.043478260869565216
sS'there'
p996
F0.043478260869565216
sg307
F0.043478260869565216
sS'3rd'
p997
F0.043478260869565216
sg611
F0.043478260869565216
sS'I'
F0.13043478260869565
sg542
F0.043478260869565216
sg405
F0.043478260869565216
sS'very'
p998
F0.043478260869565216
sg447
F0.043478260869565216
sg852
F0.043478260869565216
sS'hang/get'
p999
F0.043478260869565216
sS'NOW'
p1000
F0.043478260869565216
sS'not'
p1001
F0.043478260869565216
sg930
F0.043478260869565216
sS'you'
p1002
F0.043478260869565216
sg906
F0.043478260869565216
sS"I'm"
p1003
F0.043478260869565216
sS'those'
p1004
F0.043478260869565216
ssg161
(dp1005
g457
F1
ssg937
(dp1006
S'on'
p1007
F1
ssg90
(dp1008
S'of'
p1009
F1
ssg517
(dp1010
g607
F0.5
sS'those'
p1011
F0.5
ssg163
(dp1012
S''
F1
ssg91
(dp1013
S'that'
p1014
F1
ssg92
(dp1015
S'at'
p1016
F1
ssS'have'
p1017
(dp1018
S'a'
F0.25
sS'to'
p1019
F0.25
sS'another'
p1020
F0.25
sS'an'
p1021
F0.25
ssg259
(dp1022
S'and'
p1023
F1
ssS'keener'
p1024
(dp1025
S'on'
p1026
F1
ssS'clearly'
p1027
(dp1028
S'too'
p1029
F1
ssS'dozen'
p1030
(dp1031
S'or'
p1032
F1
ssg96
(dp1033
S':goth:'
p1034
F1
ssg98
(dp1035
S''
F1
ssS'depending'
p1036
(dp1037
S'on'
p1038
F1
ssS'trip'
p1039
(dp1040
S''
F1
ssg122
(dp1041
S'only'
p1042
F0.5
sS'some'
p1043
F0.5
ssS'Bowery'
p1044
(dp1045
S''
F1
ssS'ideas'
p1046
(dp1047
S'are:'
p1048
F1
ssg101
(dp1049
g385
F0.5
sS'No'
p1050
F0.5
ssS'note'
p1051
(dp1052
S'in'
p1053
F1
ssS'also'
p1054
(dp1055
g1024
F0.5
sg791
F0.5
ssg923
(dp1056
S'just'
p1057
F1
ssg103
(dp1058
g978
F1
ssg104
(dp1059
S'-'
F1
ssS'new'
p1060
(dp1061
g232
F0.33333333333333331
sS'water'
p1062
F0.33333333333333331
sS'spritzer'
p1063
F0.33333333333333331
ssg106
(dp1064
g898
F1
ssg560
(dp1065
S'called'
p1066
F1
ssS'Hall'
p1067
(dp1068
g769
F0.5
sS'of'
p1069
F0.5
ssg475
(dp1070
S''
F0.5
sS'up'
p1071
F0.5
ssg191
(dp1072
g286
F0.5
sg835
F0.5
ssg949
(dp1073
S''
F1
ssS'though'
p1074
(dp1075
S''
F0.33333333333333331
sS'obv'
p1076
F0.66666666666666663
ssS'who'
p1077
(dp1078
S'had'
p1079
F0.25
sS'are'
p1080
F0.5
sg431
F0.25
ssS'courtesy'
p1081
(dp1082
S'of'
p1083
F1
ssS'plan'
p1084
(dp1085
S''
F0.5
sS'is'
p1086
F0.5
ssS'<http://www'
p1087
(dp1088
S''
F1
ssS'later'
p1089
(dp1090
S'that'
p1091
F1
ssS'dog'
p1092
(dp1093
S'social'
p1094
F1
ssg120
(dp1095
S''
F1
ssg649
(dp1096
S'so'
p1097
F1
ssS'something)'
p1098
(dp1099
S''
F1
ssg124
(dp1100
S'and'
p1101
F1
ssS'Matt'
p1102
(dp1103
S''
F1
ssS'BE'
p1104
(dp1105
S'A'
F1
ssS'able'
p1106
(dp1107
S'to'
p1108
F1
ssS'anyway'
p1109
(dp1110
S''
F1
ssg6
(dp1111
S"you're"
p1112
F1
ssg211
(dp1113
S'on'
p1114
F0.5
sS'for'
p1115
F0.5
ssg35
(dp1116
S'I'
F1
ssg446
(dp1117
S'Place'
p1118
F0.5
sg943
F0.5
ssg8
(dp1119
S'will'
p1120
F0.5
sS'Oh'
p1121
F0.5
ssS'enjoyed'
p1122
(dp1123
S''
F1
ssg12
(dp1124
S''
F1
ssS'whynot'
p1125
(dp1126
g682
F1
ssg746
(dp1127
S':disappointed:'
p1128
F0.5
sS"isn't"
p1129
F0.5
ssg274
(dp1130
S''
F0.25
sS'be'
p1131
F0.25
sS'stop'
p1132
F0.25
sS'probably'
p1133
F0.25
ssg1042
(dp1134
S'listening'
p1135
F0.5
sS'one'
p1136
F0.5
ssS'going'
p1137
(dp1138
S'to'
p1139
F1
ssS'black'
p1140
(dp1141
S'lips'
p1142
F1
ssS'York'
p1143
(dp1144
S''
F0.5
sS'now,'
p1145
F0.5
ssg389
(dp1146
S'much'
p1147
F1
ssg689
(dp1148
S''
F1
ssg313
(dp1149
g1077
F0.5
sS'an'
p1150
F0.5
ssS'8'
(dp1151
S'w/'
p1152
F1
ssS'meant'
p1153
(dp1154
S'the'
p1155
F1
ssS'do'
p1156
(dp1157
S'you'
p1158
F0.33333333333333331
sg552
F0.33333333333333331
sg463
F0.33333333333333331
ssS'get'
p1159
(dp1160
S'a'
F0.25
sS'back'
p1161
F0.25
sg924
F0.25
sg275
F0.25
ssS'point,'
p1162
(dp1163
S'more'
p1164
F1
ssg1132
(dp1165
g408
F1
ssg999
(dp1166
S'some'
p1167
F1
ssg708
(dp1168
S'if'
p1169
F1
ssS'him'
p1170
(dp1171
g735
F1
ssg557
(dp1172
g714
F0.5
sS'we'
p1173
F0.5
ssS'email'
p1174
(dp1175
g499
F1
ssS'finishing'
p1176
(dp1177
S'up'
p1178
F1
ssg354
(dp1179
S''
F0.25
sS'do'
p1180
F0.25
sS'you'
p1181
F0.25
sS'Kane'
p1182
F0.25
ssS'16th'
p1183
(dp1184
S''
F1
ssg29
(dp1185
S''
F1
ssS'farther'
p1186
(dp1187
S'with'
p1188
F1
ssS'respond'
p1189
(dp1190
S'if'
p1191
F1
ssg30
(dp1192
S'those'
p1193
F1
ssg1152
(dp1194
S'nat,'
p1195
F1
ssg32
(dp1196
S''
F1
ssg171
(dp1197
S'that'
p1198
F1
ssS'cocktails'
p1199
(dp1200
S''
F0.5
sg920
F0.5
ssS'(this'
p1201
(dp1202
S'is'
p1203
F1
ssg495
(dp1204
S'you'
p1205
F0.5
sg647
F0.5
ssg876
(dp1206
S''
F0.125
sg339
F0.125
sS'people'
p1207
F0.125
sS'there'
p1208
F0.125
sg314
F0.25
sS'several'
p1209
F0.125
sg1027
F0.125
ssS'interacting'
p1210
(dp1211
S'with'
p1212
F1
ssS'visiting'
p1213
(dp1214
S'so'
p1215
F1
ssg213
(dp1216
S'planning'
p1217
F1
ssS'please'
p1218
(dp1219
g1156
F1
ssg485
(dp1220
S'a'
F1
ssg524
(dp1221
S'Thompson'
p1222
F0.33333333333333331
sg793
F0.33333333333333331
sS'2nd'
p1223
F0.33333333333333331
ssg1133
(dp1224
S'check'
p1225
F1
ssS'across'
p1226
(dp1227
S'from'
p1228
F1
ssg396
(dp1229
S'to'
p1230
F1
ssg1173
(dp1231
S'went'
p1232
F0.14285714285714285
sS"don't"
p1233
F0.14285714285714285
sS'can'
p1234
F0.2857142857142857
sS'get'
p1235
F0.14285714285714285
sS'should'
p1236
F0.2857142857142857
ssg507
(dp1237
S'the'
p1238
F1
ssg253
(dp1239
S''
F1
ssg927
(dp1240
S'on'
p1241
F1
ssg498
(dp1242
S''
F0.33333333333333331
sg1201
F0.16666666666666666
sS'on'
p1243
F0.16666666666666666
sS'up'
p1244
F0.16666666666666666
sg928
F0.16666666666666666
ssg451
(dp1245
g1226
F1
ssg44
(dp1246
S''
F1
ssS'water'
p1247
(dp1248
S''
F0.5
sS'of'
p1249
F0.5
ssS'figured'
p1250
(dp1251
S'there'
p1252
F1
ssS'last'
p1253
(dp1254
S'couple'
p1255
F1
ssS'Cowgirl'
p1256
(dp1257
S'Hall'
p1258
F1
ssg922
(dp1259
S'Brits'
p1260
F1
ssg1182
(dp1261
S'and'
p1262
F1
ssg837
(dp1263
S'and'
p1264
F0.33333333333333331
sS"you're"
p1265
F0.33333333333333331
sS'that'
p1266
F0.33333333333333331
ssg240
(dp1267
S'for'
p1268
F1
ssg49
(dp1269
g626
F1
ssS'spatter'
p1270
(dp1271
S'a'
F1
ssS'east/west/Greenwich'
p1272
(dp1273
S'village'
p1274
F1
ssg51
(dp1275
S''
F1
ssg544
(dp1276
S''
F1
ssS'Axis'
p1277
(dp1278
S'of'
p1279
F1
ssS'afterwards'
p1280
(dp1281
g1081
F1
ssg961
(dp1282
S'like'
p1283
F1
ssS'address'
p1284
(dp1285
S'it'
p1286
F1
ssg990
(dp1287
S'thing'
p1288
F1
ssg1223
(dp1289
S'and'
p1290
F1
ssS'plot)'
p1291
(dp1292
S''
F1
ssS'village'
p1293
(dp1294
S'where'
p1295
F0.33333333333333331
sS'around'
p1296
F0.33333333333333331
sS'that'
p1297
F0.33333333333333331
ssg410
(dp1298
g1044
F1
ssS'<#C03PY52QG>,'
p1299
(dp1300
S'what'
p1301
F1
ssS'speak'
p1302
(dp1303
S'to'
p1304
F1
ssg1145
(dp1305
S'judging'
p1306
F1
ssS'better'
p1307
(dp1308
S'come'
p1309
F1
ssg995
(dp1310
S'Barcade'
p1311
F1
ssg68
(dp1312
g809
F1
ssg613
(dp1313
g503
F0.5
sS'the'
p1314
F0.5
ssS'George\xe2\x80\x94apologies'
p1315
(dp1316
S'for'
p1317
F1
ssg69
(dp1318
S''
F1
ssg829
(dp1319
S'was'
p1320
F1
ssg1147
(dp1321
S'let'
p1322
F0.33333333333333331
sg1122
F0.33333333333333331
sg1186
F0.33333333333333331
ssS'fog'
p1323
(dp1324
S'of'
p1325
F1
ssg1306
(dp1326
g394
F1
ssg637
(dp1327
S'up'
p1328
F1
ssS'hunkering'
p1329
(dp1330
S'down'
p1331
F1
ssg509
(dp1332
g718
F0.5
sS'out'
p1333
F0.5
ssg380
(dp1334
S'FOMO'
p1335
F1
ssS'turned'
p1336
(dp1337
S'off'
p1338
F1
ssg45
(dp1339
S''
F1
ssS'Thurs'
p1340
(dp1341
S'23rd,'
p1342
F0.33333333333333331
sg970
F0.66666666666666663
ssS'Parson'
p1343
(dp1344
S''
F1
ssg577
(dp1345
S'with'
p1346
F1
ssg1011
(dp1347
S'of'
p1348
F0.25
sg437
F0.25
sS'near'
p1349
F0.25
sS'that'
p1350
F0.25
ssg78
(dp1351
g1218
F1
ssg753
(dp1352
S'been'
p1353
F1
ssg81
(dp1354
g327
F1
ssg765
(dp1355
S'to'
p1356
F1
ssS'near'
p1357
(dp1358
S'to'
p1359
F0.5
sg766
F0.5
ssg1063
(dp1360
S''
F1
ssS'monsters,'
p1361
(dp1362
S'we'
p1363
F1
ssg603
(dp1364
S'from'
p1365
F1
ssS'fielding'
p1366
(dp1367
S'a'
F1
ssS'hoping'
p1368
(dp1369
S'for'
p1370
F1
ssg728
(dp1371
S'responding'
p1372
F1
ssS'bot'
p1373
(dp1374
g635
F1
ssg1086
(dp1375
S'a'
F0.25
sg428
F0.125
sg535
F0.125
sS'but'
p1376
F0.125
sS'everyone'
p1377
F0.125
sS'the'
p1378
F0.125
sg940
F0.125
ssg594
(dp1379
S''
F1
ssS'it'
p1380
(dp1381
S''
F0.44444444444444442
sg223
F0.1111111111111111
sS'to'
p1382
F0.1111111111111111
sg572
F0.1111111111111111
sS'does'
p1383
F0.1111111111111111
sg525
F0.1111111111111111
ssg436
(dp1384
S'I'
F1
ssS'need'
p1385
(dp1386
S'to'
p1387
F1
ssg326
(dp1388
S'who'
p1389
F1
ssS'Nat'
p1390
(dp1391
S'out'
p1392
F1
ssg713
(dp1393
g195
F0.058823529411764705
sg344
F0.058823529411764705
sS'around'
p1394
F0.058823529411764705
sS'for'
p1395
F0.058823529411764705
sS'that'
p1396
F0.058823529411764705
sS'west'
p1397
F0.058823529411764705
sg1125
F0.058823529411764705
sS'NY'
p1398
F0.058823529411764705
sg545
F0.058823529411764705
sS'V'
F0.058823529411764705
sS'New'
p1399
F0.058823529411764705
sS'the'
p1400
F0.17647058823529413
sg1366
F0.058823529411764705
sg1299
F0.058823529411764705
sS''
F0.058823529411764705
ssg95
(dp1401
S'the'
p1402
F1
ssg934
(dp1403
g915
F0.33333333333333331
sS'I'
F0.33333333333333331
sS'you'
p1404
F0.33333333333333331
ssg99
(dp1405
g1030
F1
ssS')'
(dp1406
S''
F1
ssg362
(dp1407
S''
F0.5
sg1109
F0.5
ssS'distilley'
p1408
(dp1409
S'and'
p1410
F1
ssS'bot-foglet'
p1411
(dp1412
S''
F1
ssS'same'
p1413
(dp1414
S'as'
p1415
F1
ssS'any'
p1416
(dp1417
S'reccs'
p1418
F1
ssg785
(dp1419
S'is'
p1420
F1
ssg654
(dp1421
g375
F1
ssg415
(dp1422
S''
F1
ssg472
(dp1423
S'so'
p1424
F1
ssg762
(dp1425
S''
F0.20000000000000001
sg1361
F0.20000000000000001
sg1089
F0.40000000000000002
sg1280
F0.20000000000000001
ssg1209
(dp1426
S'of'
p1427
F0.5
sg1036
F0.5
ssS'week'
p1428
(dp1429
S'or'
p1430
F0.5
sS'would'
p1431
F0.5
ssS'fairly'
p1432
(dp1433
S'loud)'
p1434
F1
ssg366
(dp1435
S''
F1
ssS'I'
(dp1436
g1153
F0.041666666666666664
sS'thought'
p1437
F0.041666666666666664
sg631
F0.041666666666666664
sS'owe'
p1438
F0.041666666666666664
sS'am'
p1439
F0.041666666666666664
sS'get'
p1440
F0.041666666666666664
sg1336
F0.041666666666666664
sS'will'
p1441
F0.041666666666666664
sg858
F0.041666666666666664
sS'can'
p1442
F0.16666666666666666
sS'directly'
p1443
F0.041666666666666664
sg403
F0.041666666666666664
sg772
F0.083333333333333329
sg518
F0.041666666666666664
sg304
F0.041666666666666664
sg677
F0.041666666666666664
sg862
F0.125
sS'know'
p1444
F0.041666666666666664
ssg857
(dp1445
S''
F1
ssg1418
(dp1446
S'for'
p1447
F1
ssg112
(dp1448
g1368
F1
ssg1128
(dp1449
S''
F1
ssS'bots'
p1450
(dp1451
g726
F1
ssS'Con'
p1452
(dp1453
S'this'
p1454
F1
ssg814
(dp1455
g1067
F1
ssS'lower'
p1456
(dp1457
S'east'
p1458
F1
ssg1338
(dp1459
S'my'
p1460
F0.5
sS'in'
p1461
F0.5
ssS'i'
(dp1462
S'had'
p1463
F1
ssg117
(dp1464
S''
F1
ssg118
(dp1465
S'stay'
p1466
F1
ssg119
(dp1467
S'was'
p1468
F1
ssg1437
(dp1469
S'I'
F1
ssg1443
(dp1470
g1284
F0.5
sg1302
F0.5
ssg1383
(dp1471
g1189
F1
ssS'the'
p1472
(dp1473
S'West'
p1474
F0.023255813953488372
sS'rest'
p1475
F0.023255813953488372
sg641
F0.023255813953488372
sg266
F0.046511627906976744
sS'NYC'
p1476
F0.046511627906976744
sg895
F0.023255813953488372
sg390
F0.023255813953488372
sS'conference'
p1477
F0.023255813953488372
sg152
F0.023255813953488372
sS'area'
p1478
F0.023255813953488372
sg1408
F0.023255813953488372
sS'Addivist'
p1479
F0.023255813953488372
sg800
F0.023255813953488372
sg1413
F0.023255813953488372
sS'next'
p1480
F0.023255813953488372
sg1051
F0.023255813953488372
sg1323
F0.023255813953488372
sg206
F0.023255813953488372
sS'party'
p1481
F0.023255813953488372
sg674
F0.023255813953488372
sS'evening'
p1482
F0.093023255813953487
sg564
F0.023255813953488372
sg1247
F0.023255813953488372
sg1084
F0.023255813953488372
sg1060
F0.069767441860465115
sg1253
F0.023255813953488372
sg838
F0.023255813953488372
sg840
F0.023255813953488372
sS'bar'
p1483
F0.023255813953488372
sS'Theorizing'
p1484
F0.023255813953488372
sS'side'
p1485
F0.023255813953488372
sg848
F0.023255813953488372
sg1272
F0.023255813953488372
sS'night'
p1486
F0.023255813953488372
sg1183
F0.023255813953488372
sg1277
F0.023255813953488372
ssg180
(dp1487
g1170
F1
ssg947
(dp1488
g655
F1
ssg926
(dp1489
g652
F1
ssg633
(dp1490
S'up'
p1491
F1
ssg4
(dp1492
S'you'
p1493
F1
ssg1057
(dp1494
g1176
F0.5
sg578
F0.5
ssS'being'
p1495
(dp1496
S'around'
p1497
F1
ssS'-'
(dp1498
g663
F0.5
sg1416
F0.5
ssg1475
(dp1499
S'of'
p1500
F1
ssS'Weds,'
p1501
(dp1502
S'still'
p1503
F1
ssg7
(dp1504
g1137
F1
ssS'yes'
p1505
(dp1506
S''
F0.66666666666666663
sS'-'
F0.33333333333333331
ssg9
(dp1507
g1270
F1
ssg599
(dp1508
S'of'
p1509
F1
ssS'equipment'
p1510
(dp1511
g294
F1
ssg296
(dp1512
g1213
F1
ssg1079
(dp1513
g918
F0.5
sg1140
F0.5
ssg756
(dp1514
g991
F1
ssS'it\xe2\x80\x99s'
p1515
(dp1516
S'only'
p1517
F1
ssg169
(dp1518
g1380
F1
ssg15
(dp1519
g1250
F1
ssg17
(dp1520
S'getting'
p1521
F1
ssg1458
(dp1522
g743
F1
ssg621
(dp1523
g737
F1
ssg692
(dp1524
g911
F1
ssg551
(dp1525
g815
F1
ssg1296
(dp1526
g973
F0.33333333333333331
sS'for'
p1527
F0.33333333333333331
sg241
F0.33333333333333331
ssg19
(dp1528
g1505
F1
ssg1121
(dp1529
S''
F0.25
sS'good,'
p1530
F0.25
sg1411
F0.25
sg254
F0.25
ssg343
(dp1531
S'you'
p1532
F1
ssg597
(dp1533
g671
F1
ssg1255
(dp1534
S'of'
p1535
F1
ssg256
(dp1536
S'I'
F1
ssS'know'
p1537
(dp1538
S'there'
p1539
F0.33333333333333331
sg827
F0.33333333333333331
sS'time'
p1540
F0.33333333333333331
ssg704
(dp1541
S''
F0.5
sS'/participating'
p1542
F0.5
ssg598
(dp1543
S''
F0.5
sS'of'
p1544
F0.5
ssg600
(dp1545
g1373
F1
ssg73
(dp1546
g962
F1
ssS'like'
p1547
(dp1548
S''
F0.33333333333333331
sS'to'
p1549
F0.33333333333333331
sg751
F0.33333333333333331
ssg602
(dp1550
S'plan'
p1551
F1
ssg28
(dp1552
g1098
F1
ssS'either'
p1553
(dp1554
g1039
F1
ssg77
(dp1555
S'i'
F1
ssg1486
(dp1556
g558
F0.5
sS'with'
p1557
F0.5
ssS'right'
p1558
(dp1559
S''
F0.5
sS'for'
p1560
F0.5
ssg158
(dp1561
S'and'
p1562
F1
ssg319
(dp1563
S''
F0.5
sS'up'
p1564
F0.5
ssg1474
(dp1565
S'Village'
p1566
F1
ssS'some'
p1567
(dp1568
g1291
F0.16666666666666666
sg479
F0.16666666666666666
sg1162
F0.16666666666666666
sg1046
F0.16666666666666666
sg364
F0.16666666666666666
sS'karaoke'
p1569
F0.16666666666666666
ssg1161
(dp1570
S'from'
p1571
F0.5
sg421
F0.5
ssg33
(dp1572
S''
F1
ssg1142
(dp1573
S''
F1
ssg780
(dp1574
S'friends'
p1575
F1
ssS'New'
p1576
(dp1577
g1143
F1
ssg63
(dp1578
S''
F1
ssg958
(dp1579
S'on'
p1580
F1
ssS'Coffee'
p1581
(dp1582
S'are'
p1583
F1
ssS'scale'
p1584
(dp1585
S''
F1
ssS'amongst'
p1586
(dp1587
g778
F1
ssS"there'll"
p1588
(dp1589
S'be'
p1590
F1
ssg1560
(dp1591
S'a'
F0.17647058823529413
sg278
F0.058823529411764705
sS'coffee'
p1592
F0.11764705882352941
sg821
F0.058823529411764705
sg515
F0.058823529411764705
sS'this'
p1593
F0.11764705882352941
sS"Deb's"
p1594
F0.058823529411764705
sg1553
F0.058823529411764705
sS'NYC'
p1595
F0.058823529411764705
sg1576
F0.058823529411764705
sS'the'
p1596
F0.11764705882352941
sg817
F0.058823529411764705
ssS'Frank'
p1597
(dp1598
g706
F1
ssg972
(dp1599
S'though'
p1600
F1
ssg547
(dp1601
S'but'
p1602
F1
ssS'critical'
p1603
(dp1604
S'party'
p1605
F1
ssg212
(dp1606
g1588
F1
ssg39
(dp1607
S''
F1
ssg1530
(dp1608
g901
F1
ssg401
(dp1609
S'a'
F0.083333333333333329
sg1432
F0.083333333333333329
sS'good'
p1610
F0.083333333333333329
sg465
F0.083333333333333329
sS'some'
p1611
F0.083333333333333329
sS'there'
p1612
F0.083333333333333329
sg1106
F0.083333333333333329
sS'up'
p1613
F0.083333333333333329
sg355
F0.083333333333333329
sg886
F0.083333333333333329
sS'nice'
p1614
F0.16666666666666666
ssg110
(dp1615
S'NEEDS'
p1616
F1
ssg1434
(dp1617
S'but'
p1618
F1
ssg478
(dp1619
S'on'
p1620
F1
ssg1195
(dp1621
S'come'
p1622
F1
ssS'gatecrashing'
p1623
(dp1624
S'a'
F1
ssS'Wes,'
p1625
(dp1626
g1315
F1
ssg1118
(dp1627
S'between'
p1628
F1
ssg43
(dp1629
g1581
F0.5
sS"we're"
p1630
F0.5
ssg512
(dp1631
S'at'
p1632
F1
ssg1241
(dp1633
S''
F0.040000000000000001
sg609
F0.040000000000000001
sg1456
F0.040000000000000001
sg604
F0.040000000000000001
sS'that'
p1634
F0.040000000000000001
sg1495
F0.040000000000000001
sS'my'
p1635
F0.040000000000000001
sg349
F0.040000000000000001
sg869
F0.040000000000000001
sS'Friday,'
p1636
F0.040000000000000001
sg439
F0.080000000000000002
sS'us'
p1637
F0.040000000000000001
sg1092
F0.040000000000000001
sS'lavendar'
p1638
F0.040000000000000001
sg187
F0.040000000000000001
sg521
F0.080000000000000002
sg757
F0.080000000000000002
sS'the'
p1639
F0.12
sS'where'
p1640
F0.040000000000000001
sS'your'
p1641
F0.040000000000000001
ssg628
(dp1642
g1558
F1
ssS'working'
p1643
(dp1644
S''
F1
ssg617
(dp1645
S'next'
p1646
F1
ssg1521
(dp1647
S'into'
p1648
F1
ssg741
(dp1649
S''
F1
ssg1083
(dp1650
g199
F0.050000000000000003
sg1643
F0.050000000000000003
sS'our'
p1651
F0.050000000000000003
sg846
F0.050000000000000003
sS'Fame'
p1652
F0.050000000000000003
sg1340
F0.050000000000000003
sS'rain'
p1653
F0.050000000000000003
sS'Think'
p1654
F0.050000000000000003
sg693
F0.050000000000000003
sS'that'
p1655
F0.050000000000000003
sg695
F0.050000000000000003
sg855
F0.050000000000000003
sS'you'
p1656
F0.050000000000000003
sg1450
F0.050000000000000003
sS'the'
p1657
F0.14999999999999999
sg985
F0.050000000000000003
sS'your'
p1658
F0.050000000000000003
sS'those'
p1659
F0.050000000000000003
ssS'york]'
p1660
(dp1661
S''
F1
ssg1342
(dp1662
S'so'
p1663
F1
ssg1397
(dp1664
g1293
F1
ssg1076
(dp1665
S'as'
p1666
F1
ssg116
(dp1667
S'<@U04H9G2FG>'
p1668
F1
ssg1032
(dp1669
S'not'
p1670
F0.20000000000000001
sS'so"'
p1671
F0.20000000000000001
sS'so'
p1672
F0.20000000000000001
sS'so,'
p1673
F0.20000000000000001
sS'w'
F0.20000000000000001
ssg53
(dp1674
S'to'
p1675
F1
ssg657
(dp1676
g824
F0.5
sS'gin'
p1677
F0.5
ssg768
(dp1678
S'Peculier'
p1679
F1
ssg1050
(dp1680
g1385
F0.5
sg1515
F0.5
ssg1438
(dp1681
S'folks'
p1682
F1
ssg880
(dp1683
g866
F1
ssg673
(dp1684
S'town'
p1685
F0.33333333333333331
sg1472
F0.66666666666666663
ssg1034
(dp1686
S''
F1
ssg494
(dp1687
g281
F0.33333333333333331
sS'a'
F0.66666666666666663
ssg149
(dp1688
g1547
F1
ssg1353
(dp1689
g336
F1
ssg771
(dp1690
g1357
F1
ssg265
(dp1691
S"I'll"
p1692
F1
ssg228
(dp1693
g1428
F0.5
sg1501
F0.25
sS'time'
p1694
F0.25
ssg1658
(dp1695
g146
F0.5
sS'want-to-do'
p1696
F0.5
ssg64
(dp1697
g975
F1
ssg65
(dp1698
S'I'
F1
ssg1311
(dp1699
S'St'
p1700
F1
ssg1478
(dp1701
g1307
F1
ssg1575
(dp1702
S''
F1
ssg996
(dp1703
S'all'
p1704
F0.125
sS'this'
p1705
F0.125
sS'should'
p1706
F0.125
sS'are'
p1707
F0.125
sS'in'
p1708
F0.125
sS'was'
p1709
F0.25
sg747
F0.125
ssg1479
(dp1710
S'thing'
p1711
F1
ssg595
(dp1712
g967
F0.5
sS'day'
p1713
F0.5
ssg1398
(dp1714
S''
F1
ssg723
(dp1715
g1597
F1
ssg1630
(dp1716
g1329
F1
ssg882
(dp1717
S''
F1
ssg1677
(dp1718
S''
F1
ssS'[new'
p1719
(dp1720
g1660
F1
ssg131
(dp1721
S'a'
F0.33333333333333331
sS'on'
p1722
F0.16666666666666666
sS'some'
p1723
F0.16666666666666666
sS'me'
p1724
F0.16666666666666666
sS'once'
p1725
F0.16666666666666666
ssg1671
(dp1726
S'is'
p1727
F1
ssg72
(dp1728
S"I'll"
p1729
F1
ssg1673
(dp1730
S'and'
p1731
F1
ssg646
(dp1732
g271
F0.25
sg1567
F0.25
sg399
F0.25
sg129
F0.25
ssg510
(dp1733
S'for'
p1734
F1
ssg297
(dp1735
S'tasty'
p1736
F1
ssg591
(dp1737
S'is'
p1738
F0.5
sg1452
F0.5
ssS'ha'
p1739
(dp1740
S''
F0.40000000000000002
sS'ha'
p1741
F0.59999999999999998
ssg861
(dp1742
S'a'
F0.14285714285714285
sg257
F0.14285714285714285
sS'us'
p1743
F0.14285714285714285
sg370
F0.14285714285714285
sg330
F0.14285714285714285
sS'NYC'
p1744
F0.14285714285714285
sg192
F0.14285714285714285
ssg1729
(dp1745
g323
F0.33333333333333331
sg1017
F0.66666666666666663
ssg172
(dp1746
S'off'
p1747
F1
ssg1372
(dp1748
S'to'
p1749
F1
ssg685
(dp1750
S'on'
p1751
F1
ssg956
(dp1752
S''
F1
ssg823
(dp1753
S'for'
p1754
F0.25
sS'somewhere'
p1755
F0.125
sS'my'
p1756
F0.125
sS'to'
p1757
F0.125
sS'too'
p1758
F0.125
sS'the'
p1759
F0.125
sS'with'
p1760
F0.125
ssg1637
(dp1761
S''
F0.33333333333333331
sS'and'
p1762
F0.33333333333333331
sg1623
F0.33333333333333331
ssg82
(dp1763
S''
F1
ssg84
(dp1764
S''
F1
ssg1260
(dp1765
S'in'
p1766
F1
ssS'Ave'
p1767
(dp1768
S'A'
F1
ssg1048
(dp1769
S'Ace'
p1770
F1
ssg1066
(dp1771
g935
F1
ssg965
(dp1772
S''
F1
ssS'API'
p1773
(dp1774
g413
F1
ssg1594
(dp1775
S'conference'
p1776
F1
ssg1439
(dp1777
S'in'
p1778
F1
ssg1616
(dp1779
S'TO'
p1780
F1
ssg348
(dp1781
S'evening'
p1782
F1
ssg739
(dp1783
g476
F0.16666666666666666
sg320
F0.16666666666666666
sg1773
F0.16666666666666666
sg797
F0.16666666666666666
sg1174
F0.16666666666666666
sg988
F0.16666666666666666
ssg1638
(dp1784
S'cocktails'
p1785
F1
ssg1666
(dp1786
S'a'
F0.20000000000000001
sg638
F0.20000000000000001
sg1603
F0.40000000000000002
sS'it'
p1787
F0.20000000000000001
ssg27
(dp1788
S'on'
p1789
F1
ssg1736
(dp1790
g1199
F1
ssg932
(dp1791
S''
F0.090909090909090912
sg1584
F0.090909090909090912
sg1256
F0.090909090909090912
sg291
F0.090909090909090912
sg1510
F0.090909090909090912
sg1343
F0.090909090909090912
sS'8'
F0.090909090909090912
sS'the'
p1792
F0.27272727272727271
sS'by'
p1793
F0.090909090909090912
ssg93
(dp1794
S'I'
F0.33333333333333331
sg1739
F0.33333333333333331
sg132
F0.33333333333333331
ssg1225
(dp1795
S'that'
p1796
F1
ssg1335
(dp1797
g1586
F1
ssS'again'
p1798
(dp1799
S'very'
p1800
F1
ssg300
(dp1801
S'between'
p1802
F1
ssg445
(dp1803
g1767
F1
ssg820
(dp1804
g908
F1
ssg1780
(dp1805
g1104
F1
ssg980
(dp1806
S'in'
p1807
F1
ssg102
(dp1808
S'also'
p1809
F1
ssg105
(dp1810
S'test'
p1811
F0.5
sS''
F0.5
ssg1002
(dp1812
S'are'
p1813
F0.071428571428571425
sS'be'
p1814
F0.071428571428571425
sg1102
F0.071428571428571425
sS'who'
p1815
F0.071428571428571425
sg1159
F0.071428571428571425
sg468
F0.071428571428571425
sg538
F0.071428571428571425
sg1054
F0.071428571428571425
sS'that'
p1816
F0.071428571428571425
sg489
F0.071428571428571425
sS'directly'
p1817
F0.071428571428571425
sg416
F0.071428571428571425
sS'come'
p1818
F0.071428571428571425
sg1537
F0.071428571428571425
ssg34
(dp1819
g309
F1
ssg107
(dp1820
g461
F1
ssg1614
(dp1821
S'to'
p1822
F1
ssg1679
(dp1823
g298
F1
ssg108
(dp1824
S''
F1
ssg1770
(dp1825
g690
F1
ssg1566
(dp1826
S'this'
p1827
F1
ssg1696
(dp1828
S'list'
p1829
F1
ssg1466
(dp1830
S'out'
p1831
F1
ssg174
(dp1832
g1390
F1
ssg113
(dp1833
g1625
F1
ssg114
(dp1834
S'spritzer'
p1835
F0.20000000000000001
sg411
F0.20000000000000001
sg1719
F0.20000000000000001
sS'come'
p1836
F0.20000000000000001
sg392
F0.20000000000000001
ssg38
(dp1837
S''
F1
ssg474
(dp1838
S''
F0.5
sg1074
F0.5
ssg1542
(dp1839
S'here'
p1840
F1
ssg382
(dp1841
S'to'
p1842
F1
ssg888
(dp1843
S'evening'
p1844
F1
ssg456
(dp1845
S''
F1
ssg1484
(dp1846
g125
F1
ssg1636
(dp1847
S'and'
p1848
F1
ssg826
(dp1849
g1210
F1
ssg121
(dp1850
S'some'
p1851
F1
ssg1694
(dp1852
S'I'
F0.25
sS''
F0.25
sS'and'
p1853
F0.25
sS'for'
p1854
F0.25
ssg1652
(dp1855
S'in'
p1856
F1
ssg442
(dp1857
g1087
F1
ssg1725
(dp1858
g1798
F1
ss.